target datalayout = "e-m:e-p270:32:32-p271:32:32-p272:64:64-i64:64-i128:128-f80:128-n8:16:32:64-S128"
target triple = "x86_64-pc-linux-gnu"

%struct.Vec_Int_t_ = type { i32, i32, ptr }

; Function Attrs: inlinehint nounwind uwtable
define internal i32 @Vec_IntEntry(ptr noundef %0, i32 noundef %1) #2 {
  %3 = alloca ptr, align 8
  %4 = alloca i32, align 4
  store ptr %0, ptr %3, align 8, !tbaa !10
  store i32 %1, ptr %4, align 4, !tbaa !8
  %5 = load ptr, ptr %3, align 8, !tbaa !10
  %6 = getelementptr inbounds nuw %struct.Vec_Int_t_, ptr %5, i32 0, i32 2
  %7 = load ptr, ptr %6, align 8, !tbaa !17
  %8 = load i32, ptr %4, align 4, !tbaa !8
  %9 = sext i32 %8 to i64
  %10 = getelementptr inbounds i32, ptr %7, i64 %9
  %11 = load i32, ptr %10, align 4, !tbaa !8
  ret i32 %11
}

; Function Attrs: nounwind uwtable
define i32 @Gia_GenCreateMux_rec(ptr noundef %0, ptr noundef %1, i32 noundef %2, ptr noundef %3, i32 noundef %4) #0 {
  %6 = alloca i32, align 4
  %7 = alloca ptr, align 8
  %8 = alloca ptr, align 8
  %9 = alloca i32, align 4
  %10 = alloca ptr, align 8
  %11 = alloca i32, align 4
  %12 = alloca i32, align 4
  %13 = alloca i32, align 4
  %14 = alloca i32, align 4
  store ptr %0, ptr %7, align 8, !tbaa !20
  store ptr %1, ptr %8, align 8, !tbaa !22
  store i32 %2, ptr %9, align 4, !tbaa !8
  store ptr %3, ptr %10, align 8, !tbaa !10
  store i32 %4, ptr %11, align 4, !tbaa !8
  call void @llvm.lifetime.start.p0(i64 4, ptr %12) #14
  call void @llvm.lifetime.start.p0(i64 4, ptr %13) #14
  %15 = load i32, ptr %9, align 4, !tbaa !8
  %16 = icmp eq i32 %15, 0
  br i1 %16, label %17, label %21

17:                                               ; preds = %5
  %18 = load ptr, ptr %10, align 8, !tbaa !10
  %19 = load i32, ptr %11, align 4, !tbaa !8
  %20 = call i32 @Vec_IntEntry(ptr noundef %18, i32 noundef %19)
  store i32 %20, ptr %6, align 4
  store i32 1, ptr %14, align 4
  br label %50

21:                                               ; preds = %5
  %22 = load ptr, ptr %7, align 8, !tbaa !20
  %23 = load ptr, ptr %8, align 8, !tbaa !22
  %24 = load i32, ptr %9, align 4, !tbaa !8
  %25 = sub nsw i32 %24, 1
  %26 = load ptr, ptr %10, align 8, !tbaa !10
  %27 = load i32, ptr %11, align 4, !tbaa !8
  %28 = call i32 @Gia_GenCreateMux_rec(ptr noundef %22, ptr noundef %23, i32 noundef %25, ptr noundef %26, i32 noundef %27)
  store i32 %28, ptr %12, align 4, !tbaa !8
  %29 = load ptr, ptr %7, align 8, !tbaa !20
  %30 = load ptr, ptr %8, align 8, !tbaa !22
  %31 = load i32, ptr %9, align 4, !tbaa !8
  %32 = sub nsw i32 %31, 1
  %33 = load ptr, ptr %10, align 8, !tbaa !10
  %34 = load i32, ptr %11, align 4, !tbaa !8
  %35 = load i32, ptr %9, align 4, !tbaa !8
  %36 = sub nsw i32 %35, 1
  %37 = shl i32 1, %36
  %38 = add nsw i32 %34, %37
  %39 = call i32 @Gia_GenCreateMux_rec(ptr noundef %29, ptr noundef %30, i32 noundef %32, ptr noundef %33, i32 noundef %38)
  store i32 %39, ptr %13, align 4, !tbaa !8
  %40 = load ptr, ptr %7, align 8, !tbaa !20
  %41 = load ptr, ptr %8, align 8, !tbaa !22
  %42 = load i32, ptr %9, align 4, !tbaa !8
  %43 = sub nsw i32 %42, 1
  %44 = sext i32 %43 to i64
  %45 = getelementptr inbounds i32, ptr %41, i64 %44
  %46 = load i32, ptr %45, align 4, !tbaa !8
  %47 = load i32, ptr %13, align 4, !tbaa !8
  %48 = load i32, ptr %12, align 4, !tbaa !8
  %49 = call i32 @Gia_ManHashMux(ptr noundef %40, i32 noundef %46, i32 noundef %47, i32 noundef %48)
  store i32 %49, ptr %6, align 4
  store i32 1, ptr %14, align 4
  br label %50

50:                                               ; preds = %21, %17
  call void @llvm.lifetime.end.p0(i64 4, ptr %13) #14
  call void @llvm.lifetime.end.p0(i64 4, ptr %12) #14
  %51 = load i32, ptr %6, align 4
  ret i32 %51
}